; Function Attrs: mustprogress nounwind uwtable
define hidden void @_ZN19OpenColorIO_v2_5dev6CAMERA5APPLE11RegisterAllERNS_28BuiltinTransformRegistryImplE(ptr noundef nonnull align 8 dereferenceable(32) %0) local_unnamed_addr #5 personality ptr @__gxx_personality_v0 {
  %2 = alloca %"class.std::function.20", align 8
  %3 = alloca %"class.std::function.20", align 8
  %4 = getelementptr inbounds nuw i8, ptr %2, i64 16
  %5 = getelementptr inbounds nuw i8, ptr %2, i64 24
  call void @llvm.memset.p0.i64(ptr noundef nonnull align 8 dereferenceable(32) %2, i8 0, i64 16, i1 false)
  store ptr @"_ZNSt17_Function_handlerIFvRN19OpenColorIO_v2_5dev10OpRcPtrVecEEZNS0_6CAMERA5APPLE11RegisterAllERNS0_28BuiltinTransformRegistryImplEE3$_0E9_M_invokeERKSt9_Any_dataS2_", ptr %5, align 8, !tbaa !13
  store ptr @"_ZNSt17_Function_handlerIFvRN19OpenColorIO_v2_5dev10OpRcPtrVecEEZNS0_6CAMERA5APPLE11RegisterAllERNS0_28BuiltinTransformRegistryImplEE3$_0E10_M_managerERSt9_Any_dataRKSA_St18_Manager_operation", ptr %4, align 8, !tbaa !12
  invoke void @_ZN19OpenColorIO_v2_5dev28BuiltinTransformRegistryImpl10addBuiltinEPKcS2_St8functionIFvRNS_10OpRcPtrVecEEE(ptr noundef nonnull align 8 dereferenceable(32) %0, ptr noundef nonnull @.str, ptr noundef nonnull @.str.1, ptr noundef nonnull %2)
          to label %6 unwind label %22

6:                                                ; preds = %1
  %7 = load ptr, ptr %4, align 8, !tbaa !12
  %.not.i = icmp eq ptr %7, null
  br i1 %.not.i, label %_ZNSt14_Function_baseD2Ev.exit, label %8

8:                                                ; preds = %6
  %9 = invoke noundef zeroext i1 %7(ptr noundef nonnull align 8 dereferenceable(32) %2, ptr noundef nonnull align 8 dereferenceable(32) %2, i32 noundef 3)
          to label %_ZNSt14_Function_baseD2Ev.exit unwind label %10

10:                                               ; preds = %8
  %11 = landingpad { ptr, i32 }
          catch ptr null
  %12 = extractvalue { ptr, i32 } %11, 0
  call void @__clang_call_terminate(ptr %12) #14
  unreachable

_ZNSt14_Function_baseD2Ev.exit:                   ; preds = %6, %8
  %13 = getelementptr inbounds nuw i8, ptr %3, i64 16
  %14 = getelementptr inbounds nuw i8, ptr %3, i64 24
  call void @llvm.memset.p0.i64(ptr noundef nonnull align 8 dereferenceable(32) %3, i8 0, i64 16, i1 false)
  store ptr @"_ZNSt17_Function_handlerIFvRN19OpenColorIO_v2_5dev10OpRcPtrVecEEZNS0_6CAMERA5APPLE11RegisterAllERNS0_28BuiltinTransformRegistryImplEE3$_1E9_M_invokeERKSt9_Any_dataS2_", ptr %14, align 8, !tbaa !13
  store ptr @"_ZNSt17_Function_handlerIFvRN19OpenColorIO_v2_5dev10OpRcPtrVecEEZNS0_6CAMERA5APPLE11RegisterAllERNS0_28BuiltinTransformRegistryImplEE3$_1E10_M_managerERSt9_Any_dataRKSA_St18_Manager_operation", ptr %13, align 8, !tbaa !12
  invoke void @_ZN19OpenColorIO_v2_5dev28BuiltinTransformRegistryImpl10addBuiltinEPKcS2_St8functionIFvRNS_10OpRcPtrVecEEE(ptr noundef nonnull align 8 dereferenceable(32) %0, ptr noundef nonnull @.str.2, ptr noundef nonnull @.str.3, ptr noundef nonnull %3)
          to label %15 unwind label %22

15:                                               ; preds = %_ZNSt14_Function_baseD2Ev.exit
  %16 = load ptr, ptr %13, align 8, !tbaa !12
  %.not.i2 = icmp eq ptr %16, null
  br i1 %.not.i2, label %_ZNSt14_Function_baseD2Ev.exit3, label %17

17:                                               ; preds = %15
  %18 = invoke noundef zeroext i1 %16(ptr noundef nonnull align 8 dereferenceable(32) %3, ptr noundef nonnull align 8 dereferenceable(32) %3, i32 noundef 3)
          to label %_ZNSt14_Function_baseD2Ev.exit3 unwind label %19

19:                                               ; preds = %17
  %20 = landingpad { ptr, i32 }
          catch ptr null
  %21 = extractvalue { ptr, i32 } %20, 0
  call void @__clang_call_terminate(ptr %21) #14
  unreachable

_ZNSt14_Function_baseD2Ev.exit3:                  ; preds = %15, %17
  ret void

22:                                               ; preds = %_ZNSt14_Function_baseD2Ev.exit, %1
  %23 = landingpad { ptr, i32 }
          catch ptr null
  %24 = extractvalue { ptr, i32 } %23, 0
  call void @__clang_call_terminate(ptr %24) #14
  unreachable
}